; Function Attrs: mustprogress uwtable
define internal fastcc void @"_ZN6google8protobuf8internal12ExtensionSet7ForEachISt17_Rb_tree_iteratorISt4pairIKiNS2_9ExtensionEEEZNS2_5ClearEvE3$_0EET0_T_SC_SB_"(ptr %0, ptr readnone %1) unnamed_addr #8 align 2 {
  %.not5 = icmp eq ptr %0, %1
  br i1 %.not5, label %._crit_edge, label %.lr.ph

._crit_edge:                                      ; preds = %.lr.ph, %2
  ret void

.lr.ph:                                           ; preds = %2, %.lr.ph
  %.sroa.0.06 = phi ptr [ %4, %.lr.ph ], [ %0, %2 ]
  %3 = getelementptr inbounds nuw i8, ptr %.sroa.0.06, i64 40
  tail call void @_ZN6google8protobuf8internal12ExtensionSet9Extension5ClearEv(ptr noundef nonnull align 8 dereferenceable(24) %3)
  %4 = tail call noundef ptr @_ZSt18_Rb_tree_incrementPSt18_Rb_tree_node_base(ptr noundef %.sroa.0.06) #34
  %.not = icmp eq ptr %4, %1
  br i1 %.not, label %._crit_edge, label %.lr.ph, !llvm.loop !306
}